; Function Attrs: mustprogress nounwind uwtable
define internal fastcc void @_ZN12_GLOBAL__N_111StmtPrinter13VisitNullStmtEPN5clang8NullStmtE(ptr noundef nonnull align 8 dereferenceable(80) %0) unnamed_addr #0 align 2 {
  %2 = getelementptr inbounds nuw i8, ptr %0, i64 8
  %3 = load i32, ptr %2, align 8
  %4 = icmp sgt i32 %3, 0
  br i1 %4, label %.lr.ph.i, label %_ZN12_GLOBAL__N_111StmtPrinter6IndentEi.exit

.lr.ph.i:                                         ; preds = %1, %_ZN4llvm11raw_ostreamlsEPKc.exit.i
  %.04.i = phi i32 [ %19, %_ZN4llvm11raw_ostreamlsEPKc.exit.i ], [ 0, %1 ]
  %5 = load ptr, ptr %0, align 8
  %6 = getelementptr inbounds nuw i8, ptr %5, i64 24
  %7 = load ptr, ptr %6, align 8
  %8 = getelementptr inbounds nuw i8, ptr %5, i64 32
  %9 = load ptr, ptr %8, align 8
  %10 = ptrtoint ptr %7 to i64
  %11 = ptrtoint ptr %9 to i64
  %12 = sub i64 %10, %11
  %13 = icmp ult i64 %12, 2
  br i1 %13, label %14, label %16

14:                                               ; preds = %.lr.ph.i
  %15 = tail call noundef nonnull align 8 dereferenceable(48) ptr @_ZN4llvm11raw_ostream5writeEPKcm(ptr noundef nonnull align 8 dereferenceable(48) %5, ptr noundef nonnull @.str.3, i64 noundef 2) #19
  br label %_ZN4llvm11raw_ostreamlsEPKc.exit.i

16:                                               ; preds = %.lr.ph.i
  store i16 8224, ptr %9, align 1
  %17 = load ptr, ptr %8, align 8
  %18 = getelementptr inbounds nuw i8, ptr %17, i64 2
  store ptr %18, ptr %8, align 8
  br label %_ZN4llvm11raw_ostreamlsEPKc.exit.i

_ZN4llvm11raw_ostreamlsEPKc.exit.i:               ; preds = %16, %14
  %19 = add nuw nsw i32 %.04.i, 1
  %exitcond.not.i = icmp eq i32 %19, %3
  br i1 %exitcond.not.i, label %_ZN12_GLOBAL__N_111StmtPrinter6IndentEi.exit, label %.lr.ph.i, !llvm.loop !16

_ZN12_GLOBAL__N_111StmtPrinter6IndentEi.exit:     ; preds = %_ZN4llvm11raw_ostreamlsEPKc.exit.i, %1
  %20 = load ptr, ptr %0, align 8
  %21 = getelementptr inbounds nuw i8, ptr %20, i64 24
  %22 = load ptr, ptr %21, align 8
  %23 = getelementptr inbounds nuw i8, ptr %20, i64 32
  %24 = load ptr, ptr %23, align 8
  %25 = icmp eq ptr %22, %24
  br i1 %25, label %26, label %28

26:                                               ; preds = %_ZN12_GLOBAL__N_111StmtPrinter6IndentEi.exit
  %27 = tail call noundef nonnull align 8 dereferenceable(48) ptr @_ZN4llvm11raw_ostream5writeEPKcm(ptr noundef nonnull align 8 dereferenceable(48) %20, ptr noundef nonnull @.str.5, i64 noundef 1) #19
  br label %_ZN4llvm11raw_ostreamlsEPKc.exit

28:                                               ; preds = %_ZN12_GLOBAL__N_111StmtPrinter6IndentEi.exit
  store i8 59, ptr %24, align 1
  %29 = load ptr, ptr %23, align 8
  %30 = getelementptr inbounds nuw i8, ptr %29, i64 1
  store ptr %30, ptr %23, align 8
  br label %_ZN4llvm11raw_ostreamlsEPKc.exit

_ZN4llvm11raw_ostreamlsEPKc.exit:                 ; preds = %26, %28
  %.0.i.i = phi ptr [ %27, %26 ], [ %20, %28 ]
  %31 = getelementptr inbounds nuw i8, ptr %0, i64 40
  %32 = tail call noundef ptr @_ZNKSt7__cxx1112basic_stringIcSt11char_traitsIcESaIcEE4dataEv(ptr noundef nonnull align 8 dereferenceable(32) %31) #19
  %33 = tail call noundef i64 @_ZNKSt7__cxx1112basic_stringIcSt11char_traitsIcESaIcEE6lengthEv(ptr noundef nonnull align 8 dereferenceable(32) %31) #19
  %34 = tail call noundef nonnull align 8 dereferenceable(48) ptr @_ZN4llvm11raw_ostream5writeEPKcm(ptr noundef nonnull align 8 dereferenceable(48) %.0.i.i, ptr noundef %32, i64 noundef %33) #19
  ret void
}